; Function Attrs: mustprogress null_pointer_is_valid sspstrong uwtable
define void @_ZN22ExportDissectionDialog13checkValidityEv(ptr noundef align 8 dereferenceable_or_null(472) %0) #4 align 2 {
  %2 = getelementptr inbounds nuw i8, ptr %0, i64 464
  %3 = load ptr, ptr %2, align 8
  %.not = icmp eq ptr %3, null
  br i1 %.not, label %18, label %4

4:                                                ; preds = %1
  %5 = getelementptr inbounds nuw i8, ptr %0, i64 352
  %6 = tail call noundef zeroext i1 @_ZN19PacketRangeGroupBox7isValidEv(ptr noundef nonnull align 8 dereferenceable_or_null(60) %5)
  %7 = getelementptr inbounds nuw i8, ptr %0, i64 40
  %8 = load i32, ptr %7, align 8
  %9 = icmp eq i32 %8, 1
  br i1 %9, label %10, label %_ZN22ExportDissectionDialog7isValidEv.exit

10:                                               ; preds = %4
  %11 = getelementptr inbounds nuw i8, ptr %0, i64 416
  %12 = tail call noundef zeroext i1 @_ZN20PacketFormatGroupBox14summaryEnabledEv(ptr noundef nonnull align 8 dereferenceable_or_null(48) %11)
  br i1 %12, label %_ZN22ExportDissectionDialog7isValidEv.exit, label %13

13:                                               ; preds = %10
  %14 = tail call noundef zeroext i1 @_ZN20PacketFormatGroupBox14detailsEnabledEv(ptr noundef nonnull align 8 dereferenceable_or_null(48) %11)
  br i1 %14, label %_ZN22ExportDissectionDialog7isValidEv.exit, label %15

15:                                               ; preds = %13
  %16 = tail call noundef zeroext i1 @_ZN20PacketFormatGroupBox12bytesEnabledEv(ptr noundef nonnull align 8 dereferenceable_or_null(48) %11)
  %17 = and i1 %6, %16
  br label %_ZN22ExportDissectionDialog7isValidEv.exit

_ZN22ExportDissectionDialog7isValidEv.exit:       ; preds = %4, %10, %13, %15
  %.1.i = phi i1 [ %6, %10 ], [ %6, %13 ], [ %6, %4 ], [ %17, %15 ]
  tail call void @_ZN7QWidget10setEnabledEb(ptr noundef nonnull align 8 dereferenceable_or_null(40) %3, i1 noundef zeroext %.1.i)
  br label %18

18:                                               ; preds = %1, %_ZN22ExportDissectionDialog7isValidEv.exit
  ret void
}